target datalayout = "e-m:e-p270:32:32-p271:32:32-p272:64:64-i64:64-i128:128-f80:128-n8:16:32:64-S128"
target triple = "x86_64-pc-linux-gnu"

%struct.AVCodecContext = type { ptr, i32, i32, ptr, i32, i32, ptr, ptr, ptr, i64, i32, i32, ptr, i32, %struct.AVRational, %struct.AVRational, %struct.AVRational, i32, i32, i32, i32, i32, %struct.AVRational, i32, i32, i32, i32, i32, i32, i32, i32, i32, i32, i32, ptr, ptr, i32, float, float, float, float, float, float, float, float, float, i32, i32, i32, i32, i32, i32, i32, i32, i32, i32, i32, i32, ptr, ptr, ptr, i32, i32, i32, i32, i32, i32, i32, i32, i32, i32, %struct.AVChannelLayout, i32, i32, i32, i32, i32, i32, i32, i32, ptr, i32, i32, i32, float, float, i32, i32, i32, i32, i32, ptr, i64, i64, float, float, i32, i32, ptr, ptr, i32, i32, i32, i32, i32, ptr, ptr, ptr, ptr, i32, i32, [8 x i64], i32, i32, i32, i32, i32, i32, i32, ptr, ptr, i32, i32, i32, i32, i32, i32, i32, i32, i32, i32, ptr, ptr, i32, i32, ptr, ptr, ptr, ptr, i32, i32, i64, i32, i32, i64, ptr, i64, ptr, i32, ptr, i32 }
%struct.AVRational = type { i32, i32 }
%struct.AVChannelLayout = type { i32, i32, %union.anon.0, ptr }
%union.anon.0 = type { i64 }
%struct.AVPixFmtDescriptor = type { ptr, i8, i8, i8, i64, [4 x %struct.AVComponentDescriptor], ptr }
%struct.AVComponentDescriptor = type { i32, i32, i32, i32, i32 }
%struct.DPXContext = type { i32, i32, i32, i32, i32 }

; Function Attrs: cold nounwind optsize uwtable
define internal i32 @encode_init(ptr noundef %0) #0 {
  %2 = alloca ptr, align 8
  %3 = alloca ptr, align 8
  %4 = alloca ptr, align 8
  store ptr %0, ptr %2, align 8, !tbaa !4
  call void @llvm.lifetime.start.p0(i64 8, ptr %3) #8
  %5 = load ptr, ptr %2, align 8, !tbaa !4
  %6 = getelementptr inbounds nuw %struct.AVCodecContext, ptr %5, i32 0, i32 6
  %7 = load ptr, ptr %6, align 8, !tbaa !9
  store ptr %7, ptr %3, align 8, !tbaa !29
  call void @llvm.lifetime.start.p0(i64 8, ptr %4) #8
  %8 = load ptr, ptr %2, align 8, !tbaa !4
  %9 = getelementptr inbounds nuw %struct.AVCodecContext, ptr %8, i32 0, i32 23
  %10 = load i32, ptr %9, align 8, !tbaa !31
  %11 = call ptr @av_pix_fmt_desc_get(i32 noundef %10)
  store ptr %11, ptr %4, align 8, !tbaa !32
  %12 = load ptr, ptr %4, align 8, !tbaa !32
  %13 = getelementptr inbounds nuw %struct.AVPixFmtDescriptor, ptr %12, i32 0, i32 4
  %14 = load i64, ptr %13, align 8, !tbaa !34
  %15 = and i64 %14, 1
  %16 = icmp ne i64 %15, 0
  %17 = xor i1 %16, true
  %18 = xor i1 %17, true
  %19 = zext i1 %18 to i32
  %20 = load ptr, ptr %3, align 8, !tbaa !29
  %21 = getelementptr inbounds nuw %struct.DPXContext, ptr %20, i32 0, i32 0
  store i32 %19, ptr %21, align 4, !tbaa !36
  %22 = load ptr, ptr %4, align 8, !tbaa !32
  %23 = getelementptr inbounds nuw %struct.AVPixFmtDescriptor, ptr %22, i32 0, i32 5
  %24 = getelementptr inbounds [4 x %struct.AVComponentDescriptor], ptr %23, i64 0, i64 0
  %25 = getelementptr inbounds nuw %struct.AVComponentDescriptor, ptr %24, i32 0, i32 4
  %26 = load i32, ptr %25, align 8, !tbaa !38
  %27 = load ptr, ptr %3, align 8, !tbaa !29
  %28 = getelementptr inbounds nuw %struct.DPXContext, ptr %27, i32 0, i32 1
  store i32 %26, ptr %28, align 4, !tbaa !40
  %29 = load ptr, ptr %4, align 8, !tbaa !32
  %30 = getelementptr inbounds nuw %struct.AVPixFmtDescriptor, ptr %29, i32 0, i32 1
  %31 = load i8, ptr %30, align 8, !tbaa !41
  %32 = zext i8 %31 to i32
  %33 = load ptr, ptr %3, align 8, !tbaa !29
  %34 = getelementptr inbounds nuw %struct.DPXContext, ptr %33, i32 0, i32 2
  store i32 %32, ptr %34, align 4, !tbaa !42
  %35 = load ptr, ptr %4, align 8, !tbaa !32
  %36 = getelementptr inbounds nuw %struct.AVPixFmtDescriptor, ptr %35, i32 0, i32 4
  %37 = load i64, ptr %36, align 8, !tbaa !34
  %38 = and i64 %37, 128
  %39 = icmp ne i64 %38, 0
  %40 = select i1 %39, i32 51, i32 50
  %41 = load ptr, ptr %3, align 8, !tbaa !29
  %42 = getelementptr inbounds nuw %struct.DPXContext, ptr %41, i32 0, i32 3
  store i32 %40, ptr %42, align 4, !tbaa !43
  %43 = load ptr, ptr %4, align 8, !tbaa !32
  %44 = getelementptr inbounds nuw %struct.AVPixFmtDescriptor, ptr %43, i32 0, i32 4
  %45 = load i64, ptr %44, align 8, !tbaa !34
  %46 = and i64 %45, 16
  %47 = icmp ne i64 %46, 0
  %48 = xor i1 %47, true
  %49 = xor i1 %48, true
  %50 = zext i1 %49 to i32
  %51 = load ptr, ptr %3, align 8, !tbaa !29
  %52 = getelementptr inbounds nuw %struct.DPXContext, ptr %51, i32 0, i32 4
  store i32 %50, ptr %52, align 4, !tbaa !44
  %53 = load ptr, ptr %2, align 8, !tbaa !4
  %54 = getelementptr inbounds nuw %struct.AVCodecContext, ptr %53, i32 0, i32 23
  %55 = load i32, ptr %54, align 8, !tbaa !31
  switch i32 %55, label %75 [
    i32 27, label %56
    i32 29, label %59
    i32 30, label %59
    i32 8, label %59
    i32 74, label %62
    i32 75, label %62
    i32 134, label %62
    i32 135, label %62
    i32 2, label %62
    i32 104, label %62
    i32 105, label %62
    i32 26, label %62
    i32 35, label %63
    i32 34, label %63
  ]

56:                                               ; preds = %1
  %57 = load ptr, ptr %3, align 8, !tbaa !29
  %58 = getelementptr inbounds nuw %struct.DPXContext, ptr %57, i32 0, i32 3
  store i32 52, ptr %58, align 4, !tbaa !43
  br label %75

59:                                               ; preds = %1, %1, %1
  %60 = load ptr, ptr %3, align 8, !tbaa !29
  %61 = getelementptr inbounds nuw %struct.DPXContext, ptr %60, i32 0, i32 3
  store i32 6, ptr %61, align 4, !tbaa !43
  br label %75

62:                                               ; preds = %1, %1, %1, %1, %1, %1, %1, %1
  br label %75

63:                                               ; preds = %1, %1
  %64 = load ptr, ptr %2, align 8, !tbaa !4
  %65 = getelementptr inbounds nuw %struct.AVCodecContext, ptr %64, i32 0, i32 115
  %66 = load i32, ptr %65, align 4, !tbaa !45
  %67 = icmp ne i32 %66, 0
  br i1 %67, label %68, label %74

68:                                               ; preds = %63
  %69 = load ptr, ptr %2, align 8, !tbaa !4
  %70 = getelementptr inbounds nuw %struct.AVCodecContext, ptr %69, i32 0, i32 115
  %71 = load i32, ptr %70, align 4, !tbaa !45
  %72 = load ptr, ptr %3, align 8, !tbaa !29
  %73 = getelementptr inbounds nuw %struct.DPXContext, ptr %72, i32 0, i32 1
  store i32 %71, ptr %73, align 4, !tbaa !40
  br label %74

74:                                               ; preds = %68, %63
  br label %75

75:                                               ; preds = %1, %74, %62, %59, %56
  call void @llvm.lifetime.end.p0(i64 8, ptr %4) #8
  call void @llvm.lifetime.end.p0(i64 8, ptr %3) #8
  ret i32 0
}