; Function Attrs: cold nounwind optsize uwtable
define internal noundef i32 @encode_init(ptr noundef readonly captures(none) %0) #0 {
  %2 = getelementptr inbounds nuw i8, ptr %0, i64 32
  %3 = load ptr, ptr %2, align 8, !tbaa !4
  %4 = getelementptr inbounds nuw i8, ptr %0, i64 136
  %5 = load i32, ptr %4, align 8, !tbaa !27
  %6 = tail call ptr @av_pix_fmt_desc_get(i32 noundef %5) #7
  %7 = getelementptr inbounds nuw i8, ptr %6, i64 16
  %8 = load i64, ptr %7, align 8, !tbaa !28
  %9 = trunc i64 %8 to i32
  %10 = and i32 %9, 1
  store i32 %10, ptr %3, align 4, !tbaa !30
  %11 = getelementptr inbounds nuw i8, ptr %6, i64 40
  %12 = load i32, ptr %11, align 8, !tbaa !32
  %13 = getelementptr inbounds nuw i8, ptr %3, i64 4
  store i32 %12, ptr %13, align 4, !tbaa !34
  %14 = getelementptr inbounds nuw i8, ptr %6, i64 8
  %15 = load i8, ptr %14, align 8, !tbaa !35
  %16 = zext i8 %15 to i32
  %17 = getelementptr inbounds nuw i8, ptr %3, i64 8
  store i32 %16, ptr %17, align 4, !tbaa !36
  %18 = and i64 %8, 128
  %.not = icmp eq i64 %18, 0
  %19 = select i1 %.not, i32 50, i32 51
  %20 = getelementptr inbounds nuw i8, ptr %3, i64 12
  store i32 %19, ptr %20, align 4, !tbaa !37
  %21 = lshr i32 %9, 4
  %22 = and i32 %21, 1
  %23 = getelementptr inbounds nuw i8, ptr %3, i64 16
  store i32 %22, ptr %23, align 4, !tbaa !38
  %24 = load i32, ptr %4, align 8, !tbaa !27
  switch i32 %24, label %31 [
    i32 27, label %25
    i32 29, label %26
    i32 30, label %26
    i32 8, label %26
    i32 34, label %27
    i32 35, label %27
  ]

25:                                               ; preds = %1
  store i32 52, ptr %20, align 4, !tbaa !37
  br label %31

26:                                               ; preds = %1, %1, %1
  store i32 6, ptr %20, align 4, !tbaa !37
  br label %31

27:                                               ; preds = %1, %1
  %28 = getelementptr inbounds nuw i8, ptr %0, i64 652
  %29 = load i32, ptr %28, align 4, !tbaa !39
  %.not18 = icmp eq i32 %29, 0
  br i1 %.not18, label %31, label %30

30:                                               ; preds = %27
  store i32 %29, ptr %13, align 4, !tbaa !34
  br label %31

31:                                               ; preds = %27, %30, %26, %25, %1
  ret i32 0
}